target datalayout = "e-m:e-p270:32:32-p271:32:32-p272:64:64-i64:64-i128:128-f80:128-n8:16:32:64-S128"
target triple = "x86_64-pc-linux-gnu"

%struct.Wlc_Prs_t_ = type { i32, ptr, ptr, ptr, ptr, ptr, ptr, ptr, ptr, ptr, i32, [4 x i32], [4 x i32], [4 x i32], [10000 x i8] }

@stdout = external global ptr, align 8
@.str.2 = private unnamed_addr constant [3 x i8] c"%s\00", align 1

; Function Attrs: nounwind uwtable
define void @Wlc_PrsPrintErrorMessage(ptr noundef %0) #0 {
  %2 = alloca ptr, align 8
  store ptr %0, ptr %2, align 8
  %3 = load ptr, ptr %2, align 8
  %4 = getelementptr inbounds %struct.Wlc_Prs_t_, ptr %3, i32 0, i32 14
  %5 = getelementptr inbounds [10000 x i8], ptr %4, i64 0, i64 0
  %6 = load i8, ptr %5, align 4
  %7 = sext i8 %6 to i32
  %8 = icmp eq i32 %7, 0
  br i1 %8, label %9, label %10

9:                                                ; preds = %1
  br label %16

10:                                               ; preds = %1
  %11 = load ptr, ptr @stdout, align 8
  %12 = load ptr, ptr %2, align 8
  %13 = getelementptr inbounds %struct.Wlc_Prs_t_, ptr %12, i32 0, i32 14
  %14 = getelementptr inbounds [10000 x i8], ptr %13, i64 0, i64 0
  %15 = call i32 (ptr, ptr, ...) @fprintf(ptr noundef %11, ptr noundef @.str.2, ptr noundef %14) #13
  br label %16

16:                                               ; preds = %10, %9
  ret void
}