; Function Attrs: nofree nounwind uwtable
define void @Wlc_PrsPrintErrorMessage(ptr noundef readonly captures(none) %0) local_unnamed_addr #9 {
  %2 = getelementptr inbounds nuw i8, ptr %0, i64 132
  %3 = load i8, ptr %2, align 4
  %4 = icmp eq i8 %3, 0
  br i1 %4, label %7, label %5

5:                                                ; preds = %1
  %6 = load ptr, ptr @stdout, align 8
  %fputs = tail call i32 @fputs(ptr nonnull %2, ptr %6)
  br label %7

7:                                                ; preds = %1, %5
  ret void
}